; Function Attrs: mustprogress nounwind uwtable
define dso_local void @_ZN4node4quic8Endpoint12MaybeDestroyEv(ptr noundef nonnull align 8 dereferenceable(1520) %this) local_unnamed_addr #3 align 2 {
entry:
  %ptr_.i.i = getelementptr inbounds i8, ptr %this, i64 128
  %0 = load ptr, ptr %ptr_.i.i, align 8
  %closing.i = getelementptr inbounds i8, ptr %0, i64 3
  %1 = load i8, ptr %closing.i, align 1
  %tobool.i = icmp eq i8 %1, 0
  %_M_element_count.i.i.i = getelementptr inbounds i8, ptr %this, i64 1264
  %2 = load i64, ptr %_M_element_count.i.i.i, align 8
  %cmp.i.i = icmp eq i64 %2, 0
  %or.cond = select i1 %tobool.i, i1 %cmp.i.i, i1 false
  br i1 %or.cond, label %land.lhs.true3, label %if.end

land.lhs.true3:                                   ; preds = %entry
  %pending_callbacks = getelementptr inbounds i8, ptr %0, i64 8
  %3 = load i64, ptr %pending_callbacks, align 8
  %cmp = icmp eq i64 %3, 0
  br i1 %cmp, label %land.lhs.true5, label %if.end

land.lhs.true5:                                   ; preds = %land.lhs.true3
  %listening = getelementptr inbounds i8, ptr %0, i64 2
  %4 = load i8, ptr %listening, align 2
  %cmp8 = icmp eq i8 %4, 0
  br i1 %cmp8, label %if.then, label %if.end

if.then:                                          ; preds = %land.lhs.true5
  tail call void @_ZN4node4quic8Endpoint7DestroyENS1_12CloseContextEi(ptr noundef nonnull align 8 dereferenceable(1520) %this, i32 noundef 0, i32 noundef 0)
  br label %if.end

if.end:                                           ; preds = %if.then, %land.lhs.true5, %land.lhs.true3, %entry
  ret void
}